; Function Attrs: nounwind uwtable
define void @Aig_ManFreeGlobalBdds(ptr noundef readonly captures(none) %0, ptr noundef %1) local_unnamed_addr #0 {
  %3 = getelementptr inbounds nuw i8, ptr %0, i64 32
  %4 = load ptr, ptr %3, align 8, !tbaa !15
  %5 = getelementptr i8, ptr %4, i64 4
  %.val911 = load i32, ptr %5, align 4, !tbaa !27
  %6 = icmp sgt i32 %.val911, 0
  br i1 %6, label %.lr.ph, label %.critedge

.lr.ph:                                           ; preds = %2, %15
  %7 = phi ptr [ %16, %15 ], [ %4, %2 ]
  %indvars.iv = phi i64 [ %indvars.iv.next, %15 ], [ 0, %2 ]
  %8 = getelementptr i8, ptr %7, i64 8
  %.val10 = load ptr, ptr %8, align 8, !tbaa !29
  %9 = getelementptr inbounds nuw ptr, ptr %.val10, i64 %indvars.iv
  %10 = load ptr, ptr %9, align 8, !tbaa !30
  %11 = icmp eq ptr %10, null
  br i1 %11, label %15, label %12

12:                                               ; preds = %.lr.ph
  %13 = getelementptr i8, ptr %10, i64 40
  %.val = load ptr, ptr %13, align 8, !tbaa !8
  %.not = icmp eq ptr %.val, null
  br i1 %.not, label %15, label %14

14:                                               ; preds = %12
  tail call void @Cudd_RecursiveDeref(ptr noundef %1, ptr noundef nonnull %.val) #8
  store ptr null, ptr %13, align 8, !tbaa !8
  %.pre = load ptr, ptr %3, align 8, !tbaa !15
  br label %15

15:                                               ; preds = %.lr.ph, %14, %12
  %16 = phi ptr [ %7, %.lr.ph ], [ %.pre, %14 ], [ %7, %12 ]
  %indvars.iv.next = add nuw nsw i64 %indvars.iv, 1
  %17 = getelementptr i8, ptr %16, i64 4
  %.val9 = load i32, ptr %17, align 4, !tbaa !27
  %18 = sext i32 %.val9 to i64
  %19 = icmp slt i64 %indvars.iv.next, %18
  br i1 %19, label %.lr.ph, label %.critedge, !llvm.loop !31

.critedge:                                        ; preds = %15, %2
  ret void
}